target datalayout = "e-m:e-p270:32:32-p271:32:32-p272:64:64-i64:64-i128:128-f80:128-n8:16:32:64-S128"
target triple = "x86_64-pc-linux-gnu"

%class.LIR_Opr = type { i64 }
%class.Register = type { i32 }
%class.LIR_Assembler = type { ptr, ptr, ptr, ptr, ptr, ptr, i32, i32, %class.Label }
%class.Label = type <{ i32, [4 x i32], i32, ptr, i8, [7 x i8] }>

@g_assert_poison = external global ptr, align 8
@.str.8 = private unnamed_addr constant [44 x i8] c"src/hotspot/cpu/x86/c1_LIRAssembler_x86.cpp\00", align 1

; Function Attrs: mustprogress nounwind uwtable
define linkonce_odr hidden noundef i64 @_ZNK7LIR_Opr5valueEv(ptr noundef nonnull align 8 dereferenceable(8) %0) #1 comdat align 2 {
  %2 = alloca ptr, align 8
  store ptr %0, ptr %2, align 8
  %3 = load ptr, ptr %2, align 8
  %4 = getelementptr inbounds %class.LIR_Opr, ptr %3, i32 0, i32 0
  %5 = load i64, ptr %4, align 8
  ret i64 %5
}

; Function Attrs: mustprogress nounwind uwtable
define linkonce_odr hidden noundef zeroext i1 @_ZNK7LIR_Opr16check_value_maskEll(ptr noundef nonnull align 8 dereferenceable(8) %0, i64 noundef %1, i64 noundef %2) #1 comdat align 2 {
  %4 = alloca ptr, align 8
  %5 = alloca i64, align 8
  %6 = alloca i64, align 8
  store ptr %0, ptr %4, align 8
  store i64 %1, ptr %5, align 8
  store i64 %2, ptr %6, align 8
  %7 = load ptr, ptr %4, align 8
  %8 = call noundef i64 @_ZNK7LIR_Opr5valueEv(ptr noundef nonnull align 8 dereferenceable(8) %7)
  %9 = load i64, ptr %5, align 8
  %10 = and i64 %8, %9
  %11 = load i64, ptr %6, align 8
  %12 = icmp eq i64 %10, %11
  ret i1 %12
}

; Function Attrs: mustprogress nounwind uwtable
define linkonce_odr hidden void @_ZNK7LIR_Opr13validate_typeEv(ptr noundef nonnull align 8 dereferenceable(8) %0) #1 comdat align 2 {
  %2 = alloca ptr, align 8
  store ptr %0, ptr %2, align 8
  ret void
}

; Function Attrs: mustprogress nounwind uwtable
define linkonce_odr hidden void @_ZN14MacroAssembler6shrptrE8Register(ptr noundef nonnull align 8 dereferenceable(40) %0, i32 %1) #1 comdat align 2 {
  %3 = alloca %class.Register, align 4
  %4 = alloca ptr, align 8
  %5 = alloca %class.Register, align 4
  %6 = getelementptr inbounds %class.Register, ptr %3, i32 0, i32 0
  store i32 %1, ptr %6, align 4
  store ptr %0, ptr %4, align 8
  %7 = load ptr, ptr %4, align 8
  call void @llvm.memcpy.p0.p0.i64(ptr align 4 %5, ptr align 4 %3, i64 4, i1 false)
  %8 = getelementptr inbounds %class.Register, ptr %5, i32 0, i32 0
  %9 = load i32, ptr %8, align 4
  call void @_ZN9Assembler4shrqE8Register(ptr noundef nonnull align 8 dereferenceable(40) %7, i32 %9)
  ret void
}

; Function Attrs: mustprogress nounwind uwtable
define linkonce_odr hidden void @_ZN14MacroAssembler6sarptrE8Register(ptr noundef nonnull align 8 dereferenceable(40) %0, i32 %1) #1 comdat align 2 {
  %3 = alloca %class.Register, align 4
  %4 = alloca ptr, align 8
  %5 = alloca %class.Register, align 4
  %6 = getelementptr inbounds %class.Register, ptr %3, i32 0, i32 0
  store i32 %1, ptr %6, align 4
  store ptr %0, ptr %4, align 8
  %7 = load ptr, ptr %4, align 8
  call void @llvm.memcpy.p0.p0.i64(ptr align 4 %5, ptr align 4 %3, i64 4, i1 false)
  %8 = getelementptr inbounds %class.Register, ptr %5, i32 0, i32 0
  %9 = load i32, ptr %8, align 4
  call void @_ZN9Assembler4sarqE8Register(ptr noundef nonnull align 8 dereferenceable(40) %7, i32 %9)
  ret void
}

; Function Attrs: mustprogress nounwind uwtable
define linkonce_odr hidden void @_ZN14MacroAssembler6shlptrE8Register(ptr noundef nonnull align 8 dereferenceable(40) %0, i32 %1) #1 comdat align 2 {
  %3 = alloca %class.Register, align 4
  %4 = alloca ptr, align 8
  %5 = alloca %class.Register, align 4
  %6 = getelementptr inbounds %class.Register, ptr %3, i32 0, i32 0
  store i32 %1, ptr %6, align 4
  store ptr %0, ptr %4, align 8
  %7 = load ptr, ptr %4, align 8
  call void @llvm.memcpy.p0.p0.i64(ptr align 4 %5, ptr align 4 %3, i64 4, i1 false)
  %8 = getelementptr inbounds %class.Register, ptr %5, i32 0, i32 0
  %9 = load i32, ptr %8, align 4
  call void @_ZN9Assembler4shlqE8Register(ptr noundef nonnull align 8 dereferenceable(40) %7, i32 %9)
  ret void
}

; Function Attrs: mustprogress nounwind uwtable
define linkonce_odr hidden noundef zeroext i1 @_ZNK7LIR_Opr13is_double_cpuEv(ptr noundef nonnull align 8 dereferenceable(8) %0) #1 comdat align 2 {
  %2 = alloca ptr, align 8
  store ptr %0, ptr %2, align 8
  %3 = load ptr, ptr %2, align 8
  call void @_ZNK7LIR_Opr13validate_typeEv(ptr noundef nonnull align 8 dereferenceable(8) %3)
  %4 = call noundef zeroext i1 @_ZNK7LIR_Opr16check_value_maskEll(ptr noundef nonnull align 8 dereferenceable(8) %3, i64 noundef 391, i64 noundef 131)
  ret i1 %4
}

; Function Attrs: mustprogress nounwind uwtable
define linkonce_odr hidden noundef zeroext i1 @_ZNK7LIR_Opr13is_single_cpuEv(ptr noundef nonnull align 8 dereferenceable(8) %0) #1 comdat align 2 {
  %2 = alloca ptr, align 8
  store ptr %0, ptr %2, align 8
  %3 = load ptr, ptr %2, align 8
  call void @_ZNK7LIR_Opr13validate_typeEv(ptr noundef nonnull align 8 dereferenceable(8) %3)
  %4 = call noundef zeroext i1 @_ZNK7LIR_Opr16check_value_maskEll(ptr noundef nonnull align 8 dereferenceable(8) %3, i64 noundef 391, i64 noundef 3)
  ret i1 %4
}

; Function Attrs: mustprogress nounwind uwtable
define linkonce_odr hidden noundef ptr @_ZN7LIR_OprptEv(ptr noundef nonnull align 8 dereferenceable(8) %0) #1 comdat align 2 {
  %2 = alloca ptr, align 8
  store ptr %0, ptr %2, align 8
  %3 = load ptr, ptr %2, align 8
  ret ptr %3
}

; Function Attrs: mustprogress nounwind uwtable
define hidden void @_ZN13LIR_Assembler8shift_opE8LIR_Code7LIR_OprS1_S1_S1_(ptr noundef nonnull align 8 dereferenceable(96) %0, i32 noundef %1, i64 %2, i64 %3, i64 %4, i64 %5) #1 align 2 {
  %7 = alloca %class.LIR_Opr, align 8
  %8 = alloca %class.LIR_Opr, align 8
  %9 = alloca %class.LIR_Opr, align 8
  %10 = alloca %class.LIR_Opr, align 8
  %11 = alloca ptr, align 8
  %12 = alloca i32, align 4
  %13 = alloca %class.Register, align 4
  %14 = alloca %class.Register, align 4
  %15 = alloca %class.Register, align 4
  %16 = alloca %class.Register, align 4
  %17 = alloca %class.Register, align 4
  %18 = alloca %class.Register, align 4
  %19 = alloca %class.Register, align 4
  %20 = alloca %class.Register, align 4
  %21 = alloca %class.Register, align 4
  %22 = getelementptr inbounds %class.LIR_Opr, ptr %7, i32 0, i32 0
  store i64 %2, ptr %22, align 8
  %23 = getelementptr inbounds %class.LIR_Opr, ptr %8, i32 0, i32 0
  store i64 %3, ptr %23, align 8
  %24 = getelementptr inbounds %class.LIR_Opr, ptr %9, i32 0, i32 0
  store i64 %4, ptr %24, align 8
  %25 = getelementptr inbounds %class.LIR_Opr, ptr %10, i32 0, i32 0
  store i64 %5, ptr %25, align 8
  store ptr %0, ptr %11, align 8
  store i32 %1, ptr %12, align 4
  %26 = load ptr, ptr %11, align 8
  %27 = call noundef ptr @_ZN7LIR_OprptEv(ptr noundef nonnull align 8 dereferenceable(8) %7)
  %28 = call noundef zeroext i1 @_ZNK7LIR_Opr13is_single_cpuEv(ptr noundef nonnull align 8 dereferenceable(8) %27)
  br i1 %28, label %29, label %54

29:                                               ; preds = %6
  %30 = call noundef ptr @_ZN7LIR_OprptEv(ptr noundef nonnull align 8 dereferenceable(8) %7)
  %31 = call i32 @_ZNK7LIR_Opr11as_registerEv(ptr noundef nonnull align 8 dereferenceable(8) %30)
  %32 = getelementptr inbounds %class.Register, ptr %13, i32 0, i32 0
  store i32 %31, ptr %32, align 4
  %33 = load i32, ptr %12, align 4
  switch i32 %33, label %49 [
    i32 58, label %34
    i32 59, label %39
    i32 60, label %44
  ]

34:                                               ; preds = %29
  %35 = getelementptr inbounds %class.LIR_Assembler, ptr %26, i32 0, i32 0
  %36 = load ptr, ptr %35, align 8
  call void @llvm.memcpy.p0.p0.i64(ptr align 4 %14, ptr align 4 %13, i64 4, i1 false)
  %37 = getelementptr inbounds %class.Register, ptr %14, i32 0, i32 0
  %38 = load i32, ptr %37, align 4
  call void @_ZN9Assembler4shllE8Register(ptr noundef nonnull align 8 dereferenceable(40) %36, i32 %38)
  br label %53

39:                                               ; preds = %29
  %40 = getelementptr inbounds %class.LIR_Assembler, ptr %26, i32 0, i32 0
  %41 = load ptr, ptr %40, align 8
  call void @llvm.memcpy.p0.p0.i64(ptr align 4 %15, ptr align 4 %13, i64 4, i1 false)
  %42 = getelementptr inbounds %class.Register, ptr %15, i32 0, i32 0
  %43 = load i32, ptr %42, align 4
  call void @_ZN9Assembler4sarlE8Register(ptr noundef nonnull align 8 dereferenceable(40) %41, i32 %43)
  br label %53

44:                                               ; preds = %29
  %45 = getelementptr inbounds %class.LIR_Assembler, ptr %26, i32 0, i32 0
  %46 = load ptr, ptr %45, align 8
  call void @llvm.memcpy.p0.p0.i64(ptr align 4 %16, ptr align 4 %13, i64 4, i1 false)
  %47 = getelementptr inbounds %class.Register, ptr %16, i32 0, i32 0
  %48 = load i32, ptr %47, align 4
  call void @_ZN9Assembler4shrlE8Register(ptr noundef nonnull align 8 dereferenceable(40) %46, i32 %48)
  br label %53

49:                                               ; preds = %29
  br label %50

50:                                               ; preds = %49
  %51 = load ptr, ptr @g_assert_poison, align 8
  store i8 88, ptr %51, align 1
  call void @_Z28report_should_not_reach_herePKci(ptr noundef @.str.8, i32 noundef 2944) #6
  unreachable

52:                                               ; No predecessors!
  br label %53

53:                                               ; preds = %52, %44, %39, %34
  br label %90

54:                                               ; preds = %6
  %55 = call noundef ptr @_ZN7LIR_OprptEv(ptr noundef nonnull align 8 dereferenceable(8) %7)
  %56 = call noundef zeroext i1 @_ZNK7LIR_Opr13is_double_cpuEv(ptr noundef nonnull align 8 dereferenceable(8) %55)
  br i1 %56, label %57, label %85

57:                                               ; preds = %54
  %58 = call noundef ptr @_ZN7LIR_OprptEv(ptr noundef nonnull align 8 dereferenceable(8) %7)
  %59 = call i32 @_ZNK7LIR_Opr14as_register_loEv(ptr noundef nonnull align 8 dereferenceable(8) %58)
  %60 = getelementptr inbounds %class.Register, ptr %17, i32 0, i32 0
  store i32 %59, ptr %60, align 4
  %61 = call noundef ptr @_ZN7LIR_OprptEv(ptr noundef nonnull align 8 dereferenceable(8) %7)
  %62 = call i32 @_ZNK7LIR_Opr14as_register_hiEv(ptr noundef nonnull align 8 dereferenceable(8) %61)
  %63 = getelementptr inbounds %class.Register, ptr %18, i32 0, i32 0
  store i32 %62, ptr %63, align 4
  %64 = load i32, ptr %12, align 4
  switch i32 %64, label %80 [
    i32 58, label %65
    i32 59, label %70
    i32 60, label %75
  ]

65:                                               ; preds = %57
  %66 = getelementptr inbounds %class.LIR_Assembler, ptr %26, i32 0, i32 0
  %67 = load ptr, ptr %66, align 8
  call void @llvm.memcpy.p0.p0.i64(ptr align 4 %19, ptr align 4 %17, i64 4, i1 false)
  %68 = getelementptr inbounds %class.Register, ptr %19, i32 0, i32 0
  %69 = load i32, ptr %68, align 4
  call void @_ZN14MacroAssembler6shlptrE8Register(ptr noundef nonnull align 8 dereferenceable(40) %67, i32 %69)
  br label %84

70:                                               ; preds = %57
  %71 = getelementptr inbounds %class.LIR_Assembler, ptr %26, i32 0, i32 0
  %72 = load ptr, ptr %71, align 8
  call void @llvm.memcpy.p0.p0.i64(ptr align 4 %20, ptr align 4 %17, i64 4, i1 false)
  %73 = getelementptr inbounds %class.Register, ptr %20, i32 0, i32 0
  %74 = load i32, ptr %73, align 4
  call void @_ZN14MacroAssembler6sarptrE8Register(ptr noundef nonnull align 8 dereferenceable(40) %72, i32 %74)
  br label %84

75:                                               ; preds = %57
  %76 = getelementptr inbounds %class.LIR_Assembler, ptr %26, i32 0, i32 0
  %77 = load ptr, ptr %76, align 8
  call void @llvm.memcpy.p0.p0.i64(ptr align 4 %21, ptr align 4 %17, i64 4, i1 false)
  %78 = getelementptr inbounds %class.Register, ptr %21, i32 0, i32 0
  %79 = load i32, ptr %78, align 4
  call void @_ZN14MacroAssembler6shrptrE8Register(ptr noundef nonnull align 8 dereferenceable(40) %77, i32 %79)
  br label %84

80:                                               ; preds = %57
  br label %81

81:                                               ; preds = %80
  %82 = load ptr, ptr @g_assert_poison, align 8
  store i8 88, ptr %82, align 1
  call void @_Z28report_should_not_reach_herePKci(ptr noundef @.str.8, i32 noundef 2955) #6
  unreachable

83:                                               ; No predecessors!
  br label %84

84:                                               ; preds = %83, %75, %70, %65
  br label %89

85:                                               ; preds = %54
  br label %86

86:                                               ; preds = %85
  %87 = load ptr, ptr @g_assert_poison, align 8
  store i8 88, ptr %87, align 1
  call void @_Z28report_should_not_reach_herePKci(ptr noundef @.str.8, i32 noundef 2967) #6
  unreachable

88:                                               ; No predecessors!
  br label %89

89:                                               ; preds = %88, %84
  br label %90

90:                                               ; preds = %89, %53
  ret void
}