; Function Attrs: mustprogress nounwind uwtable
define hidden void @_ZN13LIR_Assembler8shift_opE8LIR_Code7LIR_OprS1_S1_S1_(ptr nocapture noundef nonnull readonly align 8 dereferenceable(96) %0, i32 noundef %1, i64 %2, i64 %3, i64 %4, i64 %5) local_unnamed_addr #0 align 2 {
  %7 = alloca %class.LIR_Opr, align 8
  store i64 %2, ptr %7, align 8
  %8 = and i64 %2, 391
  switch i64 %8, label %30 [
    i64 3, label %9
    i64 131, label %19
  ]

9:                                                ; preds = %6
  %10 = call i32 @_ZNK7LIR_Opr11as_registerEv(ptr noundef nonnull align 8 dereferenceable(8) %7) #15
  switch i32 %1, label %17 [
    i32 58, label %11
    i32 59, label %13
    i32 60, label %15
  ]

11:                                               ; preds = %9
  %12 = load ptr, ptr %0, align 8
  call void @_ZN9Assembler4shllE8Register(ptr noundef nonnull align 8 dereferenceable(40) %12, i32 %10) #15
  br label %32

13:                                               ; preds = %9
  %14 = load ptr, ptr %0, align 8
  call void @_ZN9Assembler4sarlE8Register(ptr noundef nonnull align 8 dereferenceable(40) %14, i32 %10) #15
  br label %32

15:                                               ; preds = %9
  %16 = load ptr, ptr %0, align 8
  call void @_ZN9Assembler4shrlE8Register(ptr noundef nonnull align 8 dereferenceable(40) %16, i32 %10) #15
  br label %32

17:                                               ; preds = %9
  %18 = load ptr, ptr @g_assert_poison, align 8
  store i8 88, ptr %18, align 1
  call void @_Z28report_should_not_reach_herePKci(ptr noundef nonnull @.str.8, i32 noundef 2944) #16
  unreachable

19:                                               ; preds = %6
  %20 = call i32 @_ZNK7LIR_Opr14as_register_loEv(ptr noundef nonnull align 8 dereferenceable(8) %7) #15
  %21 = call i32 @_ZNK7LIR_Opr14as_register_hiEv(ptr noundef nonnull align 8 dereferenceable(8) %7) #15
  switch i32 %1, label %28 [
    i32 58, label %22
    i32 59, label %24
    i32 60, label %26
  ]

22:                                               ; preds = %19
  %23 = load ptr, ptr %0, align 8
  call void @_ZN9Assembler4shlqE8Register(ptr noundef nonnull align 8 dereferenceable(40) %23, i32 %20) #15
  br label %32

24:                                               ; preds = %19
  %25 = load ptr, ptr %0, align 8
  call void @_ZN9Assembler4sarqE8Register(ptr noundef nonnull align 8 dereferenceable(40) %25, i32 %20) #15
  br label %32

26:                                               ; preds = %19
  %27 = load ptr, ptr %0, align 8
  call void @_ZN9Assembler4shrqE8Register(ptr noundef nonnull align 8 dereferenceable(40) %27, i32 %20) #15
  br label %32

28:                                               ; preds = %19
  %29 = load ptr, ptr @g_assert_poison, align 8
  store i8 88, ptr %29, align 1
  call void @_Z28report_should_not_reach_herePKci(ptr noundef nonnull @.str.8, i32 noundef 2955) #16
  unreachable

30:                                               ; preds = %6
  %31 = load ptr, ptr @g_assert_poison, align 8
  store i8 88, ptr %31, align 1
  tail call void @_Z28report_should_not_reach_herePKci(ptr noundef nonnull @.str.8, i32 noundef 2967) #16
  unreachable

32:                                               ; preds = %26, %24, %22, %11, %13, %15
  ret void
}